target datalayout = "e-m:e-p270:32:32-p271:32:32-p272:64:64-i64:64-i128:128-f80:128-n8:16:32:64-S128"
target triple = "x86_64-pc-linux-gnu"

%struct.Edge = type { [4 x i32], i32, i32 }

; Function Attrs: nounwind uwtable
define internal i32 @gimme_edge(ptr noundef %0, i32 noundef %1, i32 noundef %2, ptr noundef %3) #0 {
  %5 = alloca i32, align 4
  %6 = alloca ptr, align 8
  %7 = alloca i32, align 4
  %8 = alloca i32, align 4
  %9 = alloca ptr, align 8
  %10 = alloca i32, align 4
  %11 = alloca i32, align 4
  %12 = alloca i32, align 4
  %13 = alloca i32, align 4
  %14 = alloca i32, align 4
  store ptr %0, ptr %6, align 8
  store i32 %1, ptr %7, align 4
  store i32 %2, ptr %8, align 4
  store ptr %3, ptr %9, align 8
  call void @llvm.lifetime.start.p0(i64 4, ptr %10) #6
  call void @llvm.lifetime.start.p0(i64 4, ptr %11) #6
  call void @llvm.lifetime.start.p0(i64 4, ptr %12) #6
  %15 = load i32, ptr %7, align 4
  store i32 %15, ptr %12, align 4
  call void @llvm.lifetime.start.p0(i64 4, ptr %13) #6
  %16 = load i32, ptr %8, align 4
  store i32 %16, ptr %13, align 4
  %17 = load ptr, ptr %9, align 8
  %18 = load i32, ptr %12, align 4
  %19 = sext i32 %18 to i64
  %20 = getelementptr inbounds %struct.Edge, ptr %17, i64 %19
  %21 = getelementptr inbounds nuw %struct.Edge, ptr %20, i32 0, i32 1
  %22 = load i32, ptr %21, align 4
  store i32 %22, ptr %11, align 4
  store i32 0, ptr %10, align 4
  br label %23

23:                                               ; preds = %52, %4
  %24 = load i32, ptr %10, align 4
  %25 = load i32, ptr %11, align 4
  %26 = icmp slt i32 %24, %25
  br i1 %26, label %27, label %55

27:                                               ; preds = %23
  %28 = load ptr, ptr %9, align 8
  %29 = load i32, ptr %12, align 4
  %30 = sext i32 %29 to i64
  %31 = getelementptr inbounds %struct.Edge, ptr %28, i64 %30
  %32 = getelementptr inbounds nuw %struct.Edge, ptr %31, i32 0, i32 0
  %33 = load i32, ptr %10, align 4
  %34 = sext i32 %33 to i64
  %35 = getelementptr inbounds [4 x i32], ptr %32, i64 0, i64 %34
  %36 = load i32, ptr %35, align 4
  %37 = call i32 @llvm.abs.i32(i32 %36, i1 false)
  %38 = load i32, ptr %13, align 4
  %39 = icmp eq i32 %37, %38
  br i1 %39, label %40, label %51

40:                                               ; preds = %27
  %41 = load i32, ptr %13, align 4
  %42 = sub i32 0, %41
  %43 = load ptr, ptr %9, align 8
  %44 = load i32, ptr %12, align 4
  %45 = sext i32 %44 to i64
  %46 = getelementptr inbounds %struct.Edge, ptr %43, i64 %45
  %47 = getelementptr inbounds nuw %struct.Edge, ptr %46, i32 0, i32 0
  %48 = load i32, ptr %10, align 4
  %49 = sext i32 %48 to i64
  %50 = getelementptr inbounds [4 x i32], ptr %47, i64 0, i64 %49
  store i32 %42, ptr %50, align 4
  store i32 0, ptr %5, align 4
  store i32 1, ptr %14, align 4
  br label %79

51:                                               ; preds = %27
  br label %52

52:                                               ; preds = %51
  %53 = load i32, ptr %10, align 4
  %54 = add i32 %53, 1
  store i32 %54, ptr %10, align 4
  br label %23, !llvm.loop !7

55:                                               ; preds = %23
  %56 = load i32, ptr %13, align 4
  %57 = load ptr, ptr %9, align 8
  %58 = load i32, ptr %12, align 4
  %59 = sext i32 %58 to i64
  %60 = getelementptr inbounds %struct.Edge, ptr %57, i64 %59
  %61 = getelementptr inbounds nuw %struct.Edge, ptr %60, i32 0, i32 0
  %62 = load i32, ptr %11, align 4
  %63 = sext i32 %62 to i64
  %64 = getelementptr inbounds [4 x i32], ptr %61, i64 0, i64 %63
  store i32 %56, ptr %64, align 4
  %65 = load ptr, ptr %9, align 8
  %66 = load i32, ptr %12, align 4
  %67 = sext i32 %66 to i64
  %68 = getelementptr inbounds %struct.Edge, ptr %65, i64 %67
  %69 = getelementptr inbounds nuw %struct.Edge, ptr %68, i32 0, i32 1
  %70 = load i32, ptr %69, align 4
  %71 = add i32 %70, 1
  store i32 %71, ptr %69, align 4
  %72 = load ptr, ptr %9, align 8
  %73 = load i32, ptr %12, align 4
  %74 = sext i32 %73 to i64
  %75 = getelementptr inbounds %struct.Edge, ptr %72, i64 %74
  %76 = getelementptr inbounds nuw %struct.Edge, ptr %75, i32 0, i32 2
  %77 = load i32, ptr %76, align 4
  %78 = add i32 %77, 1
  store i32 %78, ptr %76, align 4
  store i32 1, ptr %5, align 4
  store i32 1, ptr %14, align 4
  br label %79

79:                                               ; preds = %55, %40
  call void @llvm.lifetime.end.p0(i64 4, ptr %13) #6
  call void @llvm.lifetime.end.p0(i64 4, ptr %12) #6
  call void @llvm.lifetime.end.p0(i64 4, ptr %11) #6
  call void @llvm.lifetime.end.p0(i64 4, ptr %10) #6
  %80 = load i32, ptr %5, align 4
  ret i32 %80
}

; Function Attrs: nounwind uwtable
define dso_local float @gimme_edge_table(ptr noundef %0, ptr noundef %1, ptr noundef %2, i32 noundef %3, ptr noundef %4) #0 {
  %6 = alloca ptr, align 8
  %7 = alloca ptr, align 8
  %8 = alloca ptr, align 8
  %9 = alloca i32, align 4
  %10 = alloca ptr, align 8
  %11 = alloca i32, align 4
  %12 = alloca i32, align 4
  %13 = alloca i32, align 4
  %14 = alloca i32, align 4
  store ptr %0, ptr %6, align 8
  store ptr %1, ptr %7, align 8
  store ptr %2, ptr %8, align 8
  store i32 %3, ptr %9, align 4
  store ptr %4, ptr %10, align 8
  call void @llvm.lifetime.start.p0(i64 4, ptr %11) #6
  call void @llvm.lifetime.start.p0(i64 4, ptr %12) #6
  call void @llvm.lifetime.start.p0(i64 4, ptr %13) #6
  call void @llvm.lifetime.start.p0(i64 4, ptr %14) #6
  store i32 1, ptr %11, align 4
  br label %15

15:                                               ; preds = %30, %5
  %16 = load i32, ptr %11, align 4
  %17 = load i32, ptr %9, align 4
  %18 = icmp sle i32 %16, %17
  br i1 %18, label %19, label %33

19:                                               ; preds = %15
  %20 = load ptr, ptr %10, align 8
  %21 = load i32, ptr %11, align 4
  %22 = sext i32 %21 to i64
  %23 = getelementptr inbounds %struct.Edge, ptr %20, i64 %22
  %24 = getelementptr inbounds nuw %struct.Edge, ptr %23, i32 0, i32 1
  store i32 0, ptr %24, align 4
  %25 = load ptr, ptr %10, align 8
  %26 = load i32, ptr %11, align 4
  %27 = sext i32 %26 to i64
  %28 = getelementptr inbounds %struct.Edge, ptr %25, i64 %27
  %29 = getelementptr inbounds nuw %struct.Edge, ptr %28, i32 0, i32 2
  store i32 0, ptr %29, align 4
  br label %30

30:                                               ; preds = %19
  %31 = load i32, ptr %11, align 4
  %32 = add i32 %31, 1
  store i32 %32, ptr %11, align 4
  br label %15, !llvm.loop !4

33:                                               ; preds = %15
  store i32 0, ptr %14, align 4
  store i32 0, ptr %12, align 4
  br label %34

34:                                               ; preds = %99, %33
  %35 = load i32, ptr %12, align 4
  %36 = load i32, ptr %9, align 4
  %37 = icmp slt i32 %35, %36
  br i1 %37, label %38, label %102

38:                                               ; preds = %34
  %39 = load i32, ptr %12, align 4
  %40 = add i32 %39, 1
  %41 = load i32, ptr %9, align 4
  %42 = srem i32 %40, %41
  store i32 %42, ptr %13, align 4
  %43 = load ptr, ptr %6, align 8
  %44 = load ptr, ptr %7, align 8
  %45 = load i32, ptr %12, align 4
  %46 = sext i32 %45 to i64
  %47 = getelementptr inbounds i32, ptr %44, i64 %46
  %48 = load i32, ptr %47, align 4
  %49 = load ptr, ptr %7, align 8
  %50 = load i32, ptr %13, align 4
  %51 = sext i32 %50 to i64
  %52 = getelementptr inbounds i32, ptr %49, i64 %51
  %53 = load i32, ptr %52, align 4
  %54 = load ptr, ptr %10, align 8
  %55 = call i32 @gimme_edge(ptr noundef %43, i32 noundef %48, i32 noundef %53, ptr noundef %54)
  %56 = load i32, ptr %14, align 4
  %57 = add i32 %56, %55
  store i32 %57, ptr %14, align 4
  %58 = load ptr, ptr %6, align 8
  %59 = load ptr, ptr %7, align 8
  %60 = load i32, ptr %13, align 4
  %61 = sext i32 %60 to i64
  %62 = getelementptr inbounds i32, ptr %59, i64 %61
  %63 = load i32, ptr %62, align 4
  %64 = load ptr, ptr %7, align 8
  %65 = load i32, ptr %12, align 4
  %66 = sext i32 %65 to i64
  %67 = getelementptr inbounds i32, ptr %64, i64 %66
  %68 = load i32, ptr %67, align 4
  %69 = load ptr, ptr %10, align 8
  %70 = call i32 @gimme_edge(ptr noundef %58, i32 noundef %63, i32 noundef %68, ptr noundef %69)
  %71 = load ptr, ptr %6, align 8
  %72 = load ptr, ptr %8, align 8
  %73 = load i32, ptr %12, align 4
  %74 = sext i32 %73 to i64
  %75 = getelementptr inbounds i32, ptr %72, i64 %74
  %76 = load i32, ptr %75, align 4
  %77 = load ptr, ptr %8, align 8
  %78 = load i32, ptr %13, align 4
  %79 = sext i32 %78 to i64
  %80 = getelementptr inbounds i32, ptr %77, i64 %79
  %81 = load i32, ptr %80, align 4
  %82 = load ptr, ptr %10, align 8
  %83 = call i32 @gimme_edge(ptr noundef %71, i32 noundef %76, i32 noundef %81, ptr noundef %82)
  %84 = load i32, ptr %14, align 4
  %85 = add i32 %84, %83
  store i32 %85, ptr %14, align 4
  %86 = load ptr, ptr %6, align 8
  %87 = load ptr, ptr %8, align 8
  %88 = load i32, ptr %13, align 4
  %89 = sext i32 %88 to i64
  %90 = getelementptr inbounds i32, ptr %87, i64 %89
  %91 = load i32, ptr %90, align 4
  %92 = load ptr, ptr %8, align 8
  %93 = load i32, ptr %12, align 4
  %94 = sext i32 %93 to i64
  %95 = getelementptr inbounds i32, ptr %92, i64 %94
  %96 = load i32, ptr %95, align 4
  %97 = load ptr, ptr %10, align 8
  %98 = call i32 @gimme_edge(ptr noundef %86, i32 noundef %91, i32 noundef %96, ptr noundef %97)
  br label %99

99:                                               ; preds = %38
  %100 = load i32, ptr %12, align 4
  %101 = add i32 %100, 1
  store i32 %101, ptr %12, align 4
  br label %34, !llvm.loop !6

102:                                              ; preds = %34
  %103 = load i32, ptr %14, align 4
  %104 = mul i32 %103, 2
  %105 = sitofp i32 %104 to float
  %106 = load i32, ptr %9, align 4
  %107 = sitofp i32 %106 to float
  %108 = fdiv float %105, %107
  call void @llvm.lifetime.end.p0(i64 4, ptr %14) #6
  call void @llvm.lifetime.end.p0(i64 4, ptr %13) #6
  call void @llvm.lifetime.end.p0(i64 4, ptr %12) #6
  call void @llvm.lifetime.end.p0(i64 4, ptr %11) #6
  ret float %108
}