; Function Attrs: nofree norecurse nosync nounwind memory(argmem: readwrite) uwtable
define dso_local float @gimme_edge_table(ptr noundef readnone captures(none) %0, ptr noundef readonly captures(none) %1, ptr noundef readonly captures(none) %2, i32 noundef %3, ptr noundef captures(none) %4) local_unnamed_addr #3 {
  %.not76 = icmp slt i32 %3, 1
  br i1 %.not76, label %._crit_edge, label %.lr.ph.preheader

.lr.ph.preheader:                                 ; preds = %5
  %6 = add nuw i32 %3, 1
  %smax = tail call i32 @llvm.smax.i32(i32 %6, i32 2)
  %wide.trip.count = zext nneg i32 %smax to i64
  br label %.lr.ph

.lr.ph80.preheader:                               ; preds = %.lr.ph
  %7 = zext nneg i32 %3 to i64
  br label %.lr.ph80

.lr.ph:                                           ; preds = %.lr.ph.preheader, %.lr.ph
  %indvars.iv = phi i64 [ 1, %.lr.ph.preheader ], [ %indvars.iv.next, %.lr.ph ]
  %8 = getelementptr inbounds nuw %struct.Edge, ptr %4, i64 %indvars.iv
  %9 = getelementptr inbounds nuw i8, ptr %8, i64 16
  store i32 0, ptr %9, align 4
  %10 = getelementptr inbounds nuw i8, ptr %8, i64 20
  store i32 0, ptr %10, align 4
  %indvars.iv.next = add nuw nsw i64 %indvars.iv, 1
  %exitcond = icmp eq i64 %indvars.iv.next, %wide.trip.count
  br i1 %exitcond, label %.lr.ph80.preheader, label %.lr.ph, !llvm.loop !4

.lr.ph80:                                         ; preds = %.lr.ph80.preheader, %gimme_edge.exit68
  %indvars.iv86 = phi i64 [ 0, %.lr.ph80.preheader ], [ %indvars.iv.next87, %gimme_edge.exit68 ]
  %.079 = phi i32 [ 0, %.lr.ph80.preheader ], [ %85, %gimme_edge.exit68 ]
  %indvars.iv.next87 = add nuw nsw i64 %indvars.iv86, 1
  %11 = icmp eq i64 %indvars.iv.next87, %7
  %12 = getelementptr inbounds nuw i32, ptr %1, i64 %indvars.iv86
  %13 = load i32, ptr %12, align 4
  %14 = and i64 %indvars.iv.next87, 4294967295
  %15 = select i1 %11, i64 0, i64 %14
  %16 = getelementptr inbounds nuw i32, ptr %1, i64 %15
  %17 = load i32, ptr %16, align 4
  %18 = sext i32 %13 to i64
  %19 = getelementptr inbounds %struct.Edge, ptr %4, i64 %18
  %20 = getelementptr inbounds nuw i8, ptr %19, i64 16
  %21 = load i32, ptr %20, align 4
  %22 = icmp sgt i32 %21, 0
  br i1 %22, label %.lr.ph.preheader.i, label %._crit_edge.i

.lr.ph.preheader.i:                               ; preds = %.lr.ph80
  %wide.trip.count.i = zext nneg i32 %21 to i64
  br label %.lr.ph.i

23:                                               ; preds = %.lr.ph.i
  %indvars.iv.next.i = add nuw nsw i64 %indvars.iv.i, 1
  %exitcond.not.i = icmp eq i64 %indvars.iv.next.i, %wide.trip.count.i
  br i1 %exitcond.not.i, label %._crit_edge.i, label %.lr.ph.i, !llvm.loop !6

.lr.ph.i:                                         ; preds = %23, %.lr.ph.preheader.i
  %indvars.iv.i = phi i64 [ 0, %.lr.ph.preheader.i ], [ %indvars.iv.next.i, %23 ]
  %24 = getelementptr inbounds nuw [4 x i32], ptr %19, i64 0, i64 %indvars.iv.i
  %25 = load i32, ptr %24, align 4
  %26 = tail call i32 @llvm.abs.i32(i32 %25, i1 false)
  %27 = icmp eq i32 %26, %17
  br i1 %27, label %28, label %23

28:                                               ; preds = %.lr.ph.i
  %29 = getelementptr inbounds nuw [4 x i32], ptr %19, i64 0, i64 %indvars.iv.i
  %30 = sub i32 0, %17
  store i32 %30, ptr %29, align 4
  br label %gimme_edge.exit

._crit_edge.i:                                    ; preds = %23, %.lr.ph80
  %31 = sext i32 %21 to i64
  %32 = getelementptr inbounds [4 x i32], ptr %19, i64 0, i64 %31
  store i32 %17, ptr %32, align 4
  %33 = load i32, ptr %20, align 4
  %34 = add i32 %33, 1
  store i32 %34, ptr %20, align 4
  %35 = getelementptr inbounds nuw i8, ptr %19, i64 20
  %36 = load i32, ptr %35, align 4
  %37 = add i32 %36, 1
  store i32 %37, ptr %35, align 4
  br label %gimme_edge.exit

gimme_edge.exit:                                  ; preds = %28, %._crit_edge.i
  %.0.i = phi i32 [ 0, %28 ], [ 1, %._crit_edge.i ]
  %38 = add i32 %.0.i, %.079
  %39 = load i32, ptr %16, align 4
  %40 = load i32, ptr %12, align 4
  %41 = sext i32 %39 to i64
  %42 = getelementptr inbounds %struct.Edge, ptr %4, i64 %41
  %43 = getelementptr inbounds nuw i8, ptr %42, i64 16
  %44 = load i32, ptr %43, align 4
  %45 = icmp sgt i32 %44, 0
  br i1 %45, label %.lr.ph.preheader.i44, label %._crit_edge.i42

.lr.ph.preheader.i44:                             ; preds = %gimme_edge.exit
  %wide.trip.count.i45 = zext nneg i32 %44 to i64
  br label %.lr.ph.i46

46:                                               ; preds = %.lr.ph.i46
  %indvars.iv.next.i48 = add nuw nsw i64 %indvars.iv.i47, 1
  %exitcond.not.i49 = icmp eq i64 %indvars.iv.next.i48, %wide.trip.count.i45
  br i1 %exitcond.not.i49, label %._crit_edge.i42, label %.lr.ph.i46, !llvm.loop !6

.lr.ph.i46:                                       ; preds = %46, %.lr.ph.preheader.i44
  %indvars.iv.i47 = phi i64 [ 0, %.lr.ph.preheader.i44 ], [ %indvars.iv.next.i48, %46 ]
  %47 = getelementptr inbounds nuw [4 x i32], ptr %42, i64 0, i64 %indvars.iv.i47
  %48 = load i32, ptr %47, align 4
  %49 = tail call i32 @llvm.abs.i32(i32 %48, i1 false)
  %50 = icmp eq i32 %49, %40
  br i1 %50, label %51, label %46

51:                                               ; preds = %.lr.ph.i46
  %52 = getelementptr inbounds nuw [4 x i32], ptr %42, i64 0, i64 %indvars.iv.i47
  %53 = sub i32 0, %40
  store i32 %53, ptr %52, align 4
  br label %gimme_edge.exit50

._crit_edge.i42:                                  ; preds = %46, %gimme_edge.exit
  %54 = sext i32 %44 to i64
  %55 = getelementptr inbounds [4 x i32], ptr %42, i64 0, i64 %54
  store i32 %40, ptr %55, align 4
  %56 = load i32, ptr %43, align 4
  %57 = add i32 %56, 1
  store i32 %57, ptr %43, align 4
  %58 = getelementptr inbounds nuw i8, ptr %42, i64 20
  %59 = load i32, ptr %58, align 4
  %60 = add i32 %59, 1
  store i32 %60, ptr %58, align 4
  br label %gimme_edge.exit50

gimme_edge.exit50:                                ; preds = %51, %._crit_edge.i42
  %61 = getelementptr inbounds nuw i32, ptr %2, i64 %indvars.iv86
  %62 = load i32, ptr %61, align 4
  %63 = getelementptr inbounds nuw i32, ptr %2, i64 %15
  %64 = load i32, ptr %63, align 4
  %65 = sext i32 %62 to i64
  %66 = getelementptr inbounds %struct.Edge, ptr %4, i64 %65
  %67 = getelementptr inbounds nuw i8, ptr %66, i64 16
  %68 = load i32, ptr %67, align 4
  %69 = icmp sgt i32 %68, 0
  br i1 %69, label %.lr.ph.preheader.i53, label %._crit_edge.i51

.lr.ph.preheader.i53:                             ; preds = %gimme_edge.exit50
  %wide.trip.count.i54 = zext nneg i32 %68 to i64
  br label %.lr.ph.i55

70:                                               ; preds = %.lr.ph.i55
  %indvars.iv.next.i57 = add nuw nsw i64 %indvars.iv.i56, 1
  %exitcond.not.i58 = icmp eq i64 %indvars.iv.next.i57, %wide.trip.count.i54
  br i1 %exitcond.not.i58, label %._crit_edge.i51, label %.lr.ph.i55, !llvm.loop !6

.lr.ph.i55:                                       ; preds = %70, %.lr.ph.preheader.i53
  %indvars.iv.i56 = phi i64 [ 0, %.lr.ph.preheader.i53 ], [ %indvars.iv.next.i57, %70 ]
  %71 = getelementptr inbounds nuw [4 x i32], ptr %66, i64 0, i64 %indvars.iv.i56
  %72 = load i32, ptr %71, align 4
  %73 = tail call i32 @llvm.abs.i32(i32 %72, i1 false)
  %74 = icmp eq i32 %73, %64
  br i1 %74, label %75, label %70

75:                                               ; preds = %.lr.ph.i55
  %76 = getelementptr inbounds nuw [4 x i32], ptr %66, i64 0, i64 %indvars.iv.i56
  %77 = sub i32 0, %64
  store i32 %77, ptr %76, align 4
  br label %gimme_edge.exit59

._crit_edge.i51:                                  ; preds = %70, %gimme_edge.exit50
  %78 = sext i32 %68 to i64
  %79 = getelementptr inbounds [4 x i32], ptr %66, i64 0, i64 %78
  store i32 %64, ptr %79, align 4
  %80 = load i32, ptr %67, align 4
  %81 = add i32 %80, 1
  store i32 %81, ptr %67, align 4
  %82 = getelementptr inbounds nuw i8, ptr %66, i64 20
  %83 = load i32, ptr %82, align 4
  %84 = add i32 %83, 1
  store i32 %84, ptr %82, align 4
  br label %gimme_edge.exit59

gimme_edge.exit59:                                ; preds = %75, %._crit_edge.i51
  %.0.i52 = phi i32 [ 0, %75 ], [ 1, %._crit_edge.i51 ]
  %85 = add i32 %38, %.0.i52
  %86 = load i32, ptr %63, align 4
  %87 = load i32, ptr %61, align 4
  %88 = sext i32 %86 to i64
  %89 = getelementptr inbounds %struct.Edge, ptr %4, i64 %88
  %90 = getelementptr inbounds nuw i8, ptr %89, i64 16
  %91 = load i32, ptr %90, align 4
  %92 = icmp sgt i32 %91, 0
  br i1 %92, label %.lr.ph.preheader.i62, label %._crit_edge.i60

.lr.ph.preheader.i62:                             ; preds = %gimme_edge.exit59
  %wide.trip.count.i63 = zext nneg i32 %91 to i64
  br label %.lr.ph.i64

93:                                               ; preds = %.lr.ph.i64
  %indvars.iv.next.i66 = add nuw nsw i64 %indvars.iv.i65, 1
  %exitcond.not.i67 = icmp eq i64 %indvars.iv.next.i66, %wide.trip.count.i63
  br i1 %exitcond.not.i67, label %._crit_edge.i60, label %.lr.ph.i64, !llvm.loop !6

.lr.ph.i64:                                       ; preds = %93, %.lr.ph.preheader.i62
  %indvars.iv.i65 = phi i64 [ 0, %.lr.ph.preheader.i62 ], [ %indvars.iv.next.i66, %93 ]
  %94 = getelementptr inbounds nuw [4 x i32], ptr %89, i64 0, i64 %indvars.iv.i65
  %95 = load i32, ptr %94, align 4
  %96 = tail call i32 @llvm.abs.i32(i32 %95, i1 false)
  %97 = icmp eq i32 %96, %87
  br i1 %97, label %98, label %93

98:                                               ; preds = %.lr.ph.i64
  %99 = getelementptr inbounds nuw [4 x i32], ptr %89, i64 0, i64 %indvars.iv.i65
  %100 = sub i32 0, %87
  store i32 %100, ptr %99, align 4
  br label %gimme_edge.exit68

._crit_edge.i60:                                  ; preds = %93, %gimme_edge.exit59
  %101 = sext i32 %91 to i64
  %102 = getelementptr inbounds [4 x i32], ptr %89, i64 0, i64 %101
  store i32 %87, ptr %102, align 4
  %103 = load i32, ptr %90, align 4
  %104 = add i32 %103, 1
  store i32 %104, ptr %90, align 4
  %105 = getelementptr inbounds nuw i8, ptr %89, i64 20
  %106 = load i32, ptr %105, align 4
  %107 = add i32 %106, 1
  store i32 %107, ptr %105, align 4
  br label %gimme_edge.exit68

gimme_edge.exit68:                                ; preds = %98, %._crit_edge.i60
  %exitcond90.not = icmp eq i64 %indvars.iv.next87, %7
  br i1 %exitcond90.not, label %._crit_edge.loopexit, label %.lr.ph80, !llvm.loop !7

._crit_edge.loopexit:                             ; preds = %gimme_edge.exit68
  %108 = shl i32 %85, 1
  %109 = sitofp i32 %108 to float
  br label %._crit_edge

._crit_edge:                                      ; preds = %5, %._crit_edge.loopexit
  %.0.lcssa = phi float [ %109, %._crit_edge.loopexit ], [ 0.000000e+00, %5 ]
  %110 = sitofp i32 %3 to float
  %111 = fdiv float %.0.lcssa, %110
  ret float %111
}